; Function Attrs: nounwind uwtable
define ptr @l_Lean_Elab_Tactic_BVDecide_Frontend_Normalize_canonicalizeWithSharing___lambda__4(ptr noundef %0, ptr noundef %1, ptr noundef %2, ptr noundef %3, ptr readnone captures(none) %4, ptr readnone captures(none) %5, ptr readnone captures(none) %6, ptr readnone captures(none) %7, ptr noundef %8, ptr noundef %9, ptr noundef %10, ptr noundef %11, ptr noundef %12) local_unnamed_addr #0 {
  %14 = ptrtoint ptr %1 to i64
  %15 = and i64 %14, 1
  %.not = icmp eq i64 %15, 0
  br i1 %.not, label %16, label %lean_inc.exit34

16:                                               ; preds = %13
  %.val.i = load i32, ptr %1, align 4, !tbaa !8
  %17 = icmp sgt i32 %.val.i, 0
  br i1 %17, label %18, label %20, !prof !11

18:                                               ; preds = %16
  %19 = add nuw i32 %.val.i, 1
  store i32 %19, ptr %1, align 4, !tbaa !8
  br label %lean_inc.exit34

20:                                               ; preds = %16
  %.not.i = icmp eq i32 %.val.i, 0
  br i1 %.not.i, label %lean_inc.exit34, label %21

21:                                               ; preds = %20
  tail call void @lean_inc_ref_cold(ptr noundef nonnull %1) #5
  br label %lean_inc.exit34

lean_inc.exit34:                                  ; preds = %21, %20, %18, %13
  %22 = ptrtoint ptr %0 to i64
  %23 = and i64 %22, 1
  %.not43 = icmp eq i64 %23, 0
  br i1 %.not43, label %24, label %lean_inc.exit33

24:                                               ; preds = %lean_inc.exit34
  %.val.i35 = load i32, ptr %0, align 4, !tbaa !8
  %25 = icmp sgt i32 %.val.i35, 0
  br i1 %25, label %26, label %28, !prof !11

26:                                               ; preds = %24
  %27 = add nuw i32 %.val.i35, 1
  store i32 %27, ptr %0, align 4, !tbaa !8
  br label %lean_inc.exit33

28:                                               ; preds = %24
  %.not.i36 = icmp eq i32 %.val.i35, 0
  br i1 %.not.i36, label %lean_inc.exit33, label %29

29:                                               ; preds = %28
  tail call void @lean_inc_ref_cold(ptr noundef nonnull %0) #5
  br label %lean_inc.exit33

lean_inc.exit33:                                  ; preds = %29, %28, %26, %lean_inc.exit34
  tail call void @lean_inc_heartbeat() #5
  %30 = tail call noalias ptr @mi_malloc_small(i64 noundef 40) #5
  %31 = icmp eq ptr %30, null
  br i1 %31, label %32, label %lean_alloc_closure.exit

32:                                               ; preds = %lean_inc.exit33
  tail call void @lean_internal_panic_out_of_memory() #6
  unreachable

lean_alloc_closure.exit:                          ; preds = %lean_inc.exit33
  %33 = getelementptr inbounds nuw i8, ptr %30, i64 4
  store i32 1, ptr %30, align 4, !tbaa !8
  store i32 -184549336, ptr %33, align 4
  %34 = getelementptr inbounds nuw i8, ptr %30, i64 8
  store ptr @l_Lean_Elab_Tactic_BVDecide_Frontend_Normalize_VarStateM_computeCoefficients___boxed, ptr %34, align 8, !tbaa !4
  %35 = getelementptr inbounds nuw i8, ptr %30, i64 16
  store i16 8, ptr %35, align 8, !tbaa !15
  %36 = getelementptr inbounds nuw i8, ptr %30, i64 18
  store i16 2, ptr %36, align 2, !tbaa !15
  %37 = getelementptr inbounds nuw i8, ptr %30, i64 24
  store ptr %0, ptr %37, align 8, !tbaa !4
  %38 = getelementptr inbounds nuw i8, ptr %30, i64 32
  store ptr %1, ptr %38, align 8, !tbaa !4
  br i1 %.not43, label %39, label %lean_inc.exit

39:                                               ; preds = %lean_alloc_closure.exit
  %.val.i38 = load i32, ptr %0, align 4, !tbaa !8
  %40 = icmp sgt i32 %.val.i38, 0
  br i1 %40, label %41, label %43, !prof !11

41:                                               ; preds = %39
  %42 = add nuw i32 %.val.i38, 1
  store i32 %42, ptr %0, align 4, !tbaa !8
  br label %lean_inc.exit

43:                                               ; preds = %39
  %.not.i39 = icmp eq i32 %.val.i38, 0
  br i1 %.not.i39, label %lean_inc.exit, label %44

44:                                               ; preds = %43
  tail call void @lean_inc_ref_cold(ptr noundef nonnull %0) #5
  br label %lean_inc.exit

lean_inc.exit:                                    ; preds = %44, %43, %41, %lean_alloc_closure.exit
  tail call void @lean_inc_heartbeat() #5
  %45 = tail call noalias ptr @mi_malloc_small(i64 noundef 56) #5
  %46 = icmp eq ptr %45, null
  br i1 %46, label %47, label %lean_alloc_closure.exit41

47:                                               ; preds = %lean_inc.exit
  tail call void @lean_internal_panic_out_of_memory() #6
  unreachable

lean_alloc_closure.exit41:                        ; preds = %lean_inc.exit
  %48 = getelementptr inbounds nuw i8, ptr %45, i64 4
  store i32 1, ptr %45, align 4, !tbaa !8
  store i32 -184549320, ptr %48, align 4
  %49 = getelementptr inbounds nuw i8, ptr %45, i64 8
  store ptr @l_Lean_Elab_Tactic_BVDecide_Frontend_Normalize_canonicalizeWithSharing___lambda__3, ptr %49, align 8, !tbaa !4
  %50 = getelementptr inbounds nuw i8, ptr %45, i64 16
  store i16 11, ptr %50, align 8, !tbaa !15
  %51 = getelementptr inbounds nuw i8, ptr %45, i64 18
  store i16 4, ptr %51, align 2, !tbaa !15
  %52 = getelementptr inbounds nuw i8, ptr %45, i64 24
  store ptr %0, ptr %52, align 8, !tbaa !4
  %53 = getelementptr inbounds nuw i8, ptr %45, i64 32
  store ptr %2, ptr %53, align 8, !tbaa !4
  %54 = getelementptr inbounds nuw i8, ptr %45, i64 40
  store ptr %3, ptr %54, align 8, !tbaa !4
  %55 = getelementptr inbounds nuw i8, ptr %45, i64 48
  store ptr %1, ptr %55, align 8, !tbaa !4
  tail call void @lean_inc_heartbeat() #5
  %56 = tail call noalias ptr @mi_malloc_small(i64 noundef 40) #5
  %57 = icmp eq ptr %56, null
  br i1 %57, label %58, label %lean_alloc_closure.exit42

58:                                               ; preds = %lean_alloc_closure.exit41
  tail call void @lean_internal_panic_out_of_memory() #6
  unreachable

lean_alloc_closure.exit42:                        ; preds = %lean_alloc_closure.exit41
  %59 = getelementptr inbounds nuw i8, ptr %56, i64 4
  store i32 1, ptr %56, align 4, !tbaa !8
  store i32 -184549336, ptr %59, align 4
  %60 = getelementptr inbounds nuw i8, ptr %56, i64 8
  store ptr @l_StateT_bind___at_Lean_Elab_Tactic_BVDecide_Frontend_Normalize_canonicalizeWithSharing___spec__1___rarg, ptr %60, align 8, !tbaa !4
  %61 = getelementptr inbounds nuw i8, ptr %56, i64 16
  store i16 8, ptr %61, align 8, !tbaa !15
  %62 = getelementptr inbounds nuw i8, ptr %56, i64 18
  store i16 2, ptr %62, align 2, !tbaa !15
  %63 = getelementptr inbounds nuw i8, ptr %56, i64 24
  store ptr %30, ptr %63, align 8, !tbaa !4
  %64 = getelementptr inbounds nuw i8, ptr %56, i64 32
  store ptr %45, ptr %64, align 8, !tbaa !4
  %65 = load ptr, ptr @l_Lean_Elab_Tactic_BVDecide_Frontend_Normalize_VarStateM_computeCoefficients___closed__3, align 8, !tbaa !4
  %66 = load ptr, ptr @l_Lean_addTrace___at_Lean_Elab_Tactic_BVDecide_Frontend_Normalize_VarStateM_computeCoefficients_go___spec__2___closed__2, align 8, !tbaa !4
  tail call void @lean_inc_heartbeat() #5
  %67 = tail call noalias ptr @mi_malloc_small(i64 noundef 32) #5
  %68 = icmp eq ptr %67, null
  br i1 %68, label %69, label %lean_alloc_ctor.exit

69:                                               ; preds = %lean_alloc_closure.exit42
  tail call void @lean_internal_panic_out_of_memory() #6
  unreachable

lean_alloc_ctor.exit:                             ; preds = %lean_alloc_closure.exit42
  %70 = getelementptr inbounds nuw i8, ptr %67, i64 4
  store i32 1, ptr %67, align 4, !tbaa !8
  store i32 196640, ptr %70, align 4
  %71 = getelementptr inbounds nuw i8, ptr %67, i64 8
  store ptr %0, ptr %71, align 8, !tbaa !4
  %72 = getelementptr inbounds nuw i8, ptr %67, i64 16
  store ptr %65, ptr %72, align 8, !tbaa !4
  %73 = getelementptr inbounds nuw i8, ptr %67, i64 24
  store ptr %66, ptr %73, align 8, !tbaa !4
  %74 = tail call ptr @l_Lean_Elab_Tactic_BVDecide_Frontend_Normalize_VarStateM_run_x27___rarg(ptr noundef nonnull %56, ptr noundef nonnull %67, ptr noundef %8, ptr noundef %9, ptr noundef %10, ptr noundef %11, ptr noundef %12)
  ret ptr %74
}